; Function Attrs: mustprogress nofree norecurse nosync nounwind willreturn memory(argmem: read) uwtable
define internal noundef double @_ZN3gmx15analysismodules12_GLOBAL__N_123calcAverageDisplacementILb0ELb1ELb1EEEdNS_8ArrayRefIKNS_11BasicVectorIfEEEES7_(ptr %0, ptr %1, ptr nocapture readonly %2, ptr nocapture readnone %3) #4 {
  %5 = ptrtoint ptr %1 to i64
  %6 = ptrtoint ptr %0 to i64
  %7 = sub i64 %5, %6
  %8 = sdiv exact i64 %7, 12
  %.not = icmp eq ptr %1, %0
  br i1 %.not, label %._crit_edge, label %.lr.ph.preheader

.lr.ph.preheader:                                 ; preds = %4
  %umax = tail call i64 @llvm.umax.i64(i64 %8, i64 1)
  br label %.lr.ph

.lr.ph:                                           ; preds = %.lr.ph.preheader, %.lr.ph
  %.016 = phi double [ %21, %.lr.ph ], [ 0.000000e+00, %.lr.ph.preheader ]
  %.01115 = phi i64 [ %22, %.lr.ph ], [ 0, %.lr.ph.preheader ]
  %9 = getelementptr inbounds %"class.gmx::BasicVector", ptr %0, i64 %.01115
  %.sroa.26.0..sroa_idx = getelementptr inbounds i8, ptr %9, i64 8
  %.sroa.26.0.copyload = load float, ptr %.sroa.26.0..sroa_idx, align 4
  %10 = getelementptr inbounds %"class.gmx::BasicVector", ptr %2, i64 %.01115
  %.sroa.24.0..sroa_idx = getelementptr inbounds i8, ptr %10, i64 8
  %.sroa.24.0.copyload = load float, ptr %.sroa.24.0..sroa_idx, align 4
  %11 = getelementptr inbounds i8, ptr %9, i64 4
  %.sroa.013.4.vec.extract.i = load float, ptr %11, align 4
  %12 = fpext float %.sroa.013.4.vec.extract.i to double
  %13 = fpext float %.sroa.26.0.copyload to double
  %14 = getelementptr inbounds i8, ptr %10, i64 4
  %.sroa.012.4.vec.extract.i = load float, ptr %14, align 4
  %15 = fpext float %.sroa.012.4.vec.extract.i to double
  %16 = fpext float %.sroa.24.0.copyload to double
  %17 = fsub double %12, %15
  %18 = tail call double @llvm.fmuladd.f64(double %17, double %17, double 0.000000e+00)
  %19 = fsub double %13, %16
  %20 = tail call noundef double @llvm.fmuladd.f64(double %19, double %19, double %18)
  %21 = fadd double %.016, %20
  %22 = add nuw i64 %.01115, 1
  %exitcond.not = icmp eq i64 %22, %umax
  br i1 %exitcond.not, label %._crit_edge, label %.lr.ph, !llvm.loop !58

._crit_edge:                                      ; preds = %.lr.ph, %4
  %.0.lcssa = phi double [ 0.000000e+00, %4 ], [ %21, %.lr.ph ]
  %23 = uitofp i64 %8 to double
  %24 = fdiv double %.0.lcssa, %23
  ret double %24
}